; Function Attrs: mustprogress nounwind willreturn uwtable
define void @Sbd_ManCutServerStop(ptr noundef captures(none) %0) local_unnamed_addr #3 {
  %2 = getelementptr inbounds nuw i8, ptr %0, i64 36136
  %3 = load ptr, ptr %2, align 8, !tbaa !29
  %4 = getelementptr inbounds nuw i8, ptr %3, i64 8
  %5 = load ptr, ptr %4, align 8, !tbaa !28
  %.not.i = icmp eq ptr %5, null
  br i1 %.not.i, label %Vec_IntFree.exit, label %6

6:                                                ; preds = %1
  tail call void @free(ptr noundef nonnull %5) #17
  br label %Vec_IntFree.exit

Vec_IntFree.exit:                                 ; preds = %1, %6
  tail call void @free(ptr noundef nonnull %3) #17
  %7 = getelementptr inbounds nuw i8, ptr %0, i64 36144
  %8 = load ptr, ptr %7, align 8, !tbaa !30
  %9 = getelementptr inbounds nuw i8, ptr %8, i64 8
  %10 = load ptr, ptr %9, align 8, !tbaa !28
  %.not.i6 = icmp eq ptr %10, null
  br i1 %.not.i6, label %Vec_IntFree.exit7, label %11

11:                                               ; preds = %Vec_IntFree.exit
  tail call void @free(ptr noundef nonnull %10) #17
  br label %Vec_IntFree.exit7

Vec_IntFree.exit7:                                ; preds = %Vec_IntFree.exit, %11
  tail call void @free(ptr noundef nonnull %8) #17
  %12 = getelementptr inbounds nuw i8, ptr %0, i64 36152
  %13 = load ptr, ptr %12, align 8, !tbaa !31
  %14 = getelementptr inbounds nuw i8, ptr %13, i64 8
  %15 = load ptr, ptr %14, align 8, !tbaa !28
  %.not.i8 = icmp eq ptr %15, null
  br i1 %.not.i8, label %Vec_IntFree.exit9, label %16

16:                                               ; preds = %Vec_IntFree.exit7
  tail call void @free(ptr noundef nonnull %15) #17
  br label %Vec_IntFree.exit9

Vec_IntFree.exit9:                                ; preds = %Vec_IntFree.exit7, %16
  tail call void @free(ptr noundef nonnull %13) #17
  %17 = getelementptr inbounds nuw i8, ptr %0, i64 36160
  %18 = load ptr, ptr %17, align 8, !tbaa !32
  %19 = getelementptr inbounds nuw i8, ptr %18, i64 8
  %20 = load ptr, ptr %19, align 8, !tbaa !28
  %.not.i10 = icmp eq ptr %20, null
  br i1 %.not.i10, label %22, label %21

21:                                               ; preds = %Vec_IntFree.exit9
  tail call void @free(ptr noundef nonnull %20) #17
  br label %22

22:                                               ; preds = %Vec_IntFree.exit9, %21
  tail call void @free(ptr noundef nonnull %18) #17
  tail call void @free(ptr noundef nonnull %0) #17
  ret void
}